; Function Attrs: mustprogress nounwind uwtable
define internal fastcc void @_ZNSt6vectorIN3ozz9animation7offline12_GLOBAL__N_110SortingKeyINS2_12RawAnimation8ScaleKeyEEENS0_12StdAllocatorIS7_EEED2Ev(ptr nocapture noundef nonnull readonly align 8 dereferenceable(24) %0) unnamed_addr #4 align 2 personality ptr @__gxx_personality_v0 {
  %.val = load ptr, ptr %0, align 8
  %.not.i.i = icmp eq ptr %.val, null
  br i1 %.not.i.i, label %_ZNSt12_Vector_baseIN3ozz9animation7offline12_GLOBAL__N_110SortingKeyINS2_12RawAnimation8ScaleKeyEEENS0_12StdAllocatorIS7_EEED2Ev.exit, label %2

2:                                                ; preds = %1
  %3 = invoke noundef ptr @_ZN3ozz6memory17default_allocatorEv()
          to label %4 unwind label %8

4:                                                ; preds = %2
  %5 = load ptr, ptr %3, align 8
  %6 = getelementptr inbounds i8, ptr %5, i64 24
  %7 = load ptr, ptr %6, align 8
  invoke void %7(ptr noundef nonnull align 8 dereferenceable(8) %3, ptr noundef nonnull %.val)
          to label %_ZNSt12_Vector_baseIN3ozz9animation7offline12_GLOBAL__N_110SortingKeyINS2_12RawAnimation8ScaleKeyEEENS0_12StdAllocatorIS7_EEED2Ev.exit unwind label %8

8:                                                ; preds = %4, %2
  %9 = landingpad { ptr, i32 }
          catch ptr null
  %10 = extractvalue { ptr, i32 } %9, 0
  tail call void @__clang_call_terminate(ptr %10) #20
  unreachable

_ZNSt12_Vector_baseIN3ozz9animation7offline12_GLOBAL__N_110SortingKeyINS2_12RawAnimation8ScaleKeyEEENS0_12StdAllocatorIS7_EEED2Ev.exit: ; preds = %1, %4
  ret void
}